; Function Attrs: mustprogress nofree norecurse nosync nounwind willreturn memory(argmem: write) uwtable
define dso_local void @_ZN18FunctionInvocationC2E15eInvocationTypePK11SafeOpFlags(ptr noundef nonnull writeonly align 8 captures(none) dereferenceable(56) initializes((0, 12), (16, 42), (48, 56)) %0, i32 noundef %1, ptr noundef %2) unnamed_addr #11 align 2 {
  store ptr getelementptr inbounds nuw inrange(-16, 104) (i8, ptr @_ZTV18FunctionInvocation, i64 16), ptr %0, align 8, !tbaa !100
  %4 = getelementptr inbounds nuw i8, ptr %0, i64 8
  store i32 %1, ptr %4, align 8, !tbaa !121
  %5 = getelementptr inbounds nuw i8, ptr %0, i64 16
  %6 = getelementptr inbounds nuw i8, ptr %0, i64 48
  tail call void @llvm.memset.p0.i64(ptr noundef nonnull align 8 dereferenceable(26) %5, i8 0, i64 26, i1 false)
  store ptr %2, ptr %6, align 8, !tbaa !171
  ret void
}